#include <math.h>
#include <stdio.h>
#include <stdlib.h>
#include <string.h>


int dd(int n)
{
	int i,z;
	if(n==1||n==2)
		z=1;
	else
	z=dd(n-1)+dd(n-2);

	return z;

}

int main()
{
	int m,i,a,b;
	scanf("%d",&m);
	for (i=0;i<m;i++)
	{
	scanf("%d",&a);
	printf("%d",dd(a));
	if (i<m-1)
		printf("\n");
	}

}